Certificate:
    Data:
        Version: 3 (0x2)
        Serial Number: 286 (0x11e)
    Signature Algorithm: sha256WithRSAEncryption
        Issuer: C=CN, ST=BEIJING, L=BEIJING, O=DE, OU=DE, CN=root/emailAddress=root@admin.com
        Validity
            Not Before: Sep 15 08:27:24 2015 GMT
            Not After : Sep 14 08:27:24 2016 GMT
        Subject: C=CN, ST=BEIJING, O=DE, OU=DE, CN=127.0.0.1/emailAddress=127@server.com
        Subject Public Key Info:
            Public Key Algorithm: rsaEncryption
                Public-Key: (2048 bit)
                Modulus:
                    00:ac:5d:88:3a:ac:01:5d:75:79:96:6a:2e:af:30:
                    c8:a6:85:51:aa:ca:3b:9d:0a:19:20:a7:34:e7:08:
                    d7:e6:11:ae:82:41:d2:42:d1:1d:9f:1c:e2:09:d0:
                    c1:65:c1:72:90:23:54:ea:bb:ef:f2:ed:63:ac:cf:
                    8b:39:a2:de:9f:2f:3d:19:7f:5c:18:64:10:4d:39:
                    ca:c7:85:1d:c9:17:80:97:a7:a3:bb:d6:98:aa:fd:
                    77:76:af:5c:ef:c0:19:90:6c:fa:2a:0e:55:8b:ee:
                    25:e3:e2:73:cf:c4:fd:66:c3:b5:24:0d:a4:e5:2e:
                    d7:16:eb:dc:85:0d:7b:67:f0:cd:85:e9:34:6b:cb:
                    1b:65:23:b9:c3:9e:12:78:a3:d6:eb:49:39:84:02:
                    10:f9:c4:3d:a8:e0:02:b0:e0:da:6c:0e:60:9a:ae:
                    36:be:0f:a4:13:13:ca:66:c7:8b:7a:69:50:fb:18:
                    3d:b9:0b:29:fd:4d:f0:a9:ee:50:b9:97:9a:44:9b:
                    df:8b:cf:56:9b:f4:55:09:06:25:ef:9e:1b:a5:88:
                    01:00:48:88:fa:98:79:08:9e:09:76:9b:b1:2a:0f:
                    57:2a:e9:85:08:a3:29:88:25:43:04:c8:ec:49:17:
                    fe:31:08:98:43:d9:74:b0:4c:fb:6d:2a:3d:a4:90:
                    d3:35
                Exponent: 65537 (0x10001)
        X509v3 extensions:
            X509v3 Basic Constraints: 
                CA:FALSE
            Netscape Comment: 
                OpenSSL Generated Certificate
            X509v3 Subject Key Identifier: 
                01:2D:31:AE:75:AD:DD:72:16:A3:9A:22:EA:F2:34:9E:D0:76:69:3D
            X509v3 Authority Key Identifier: 
                keyid:A1:57:BD:18:10:4A:FF:06:A2:17:AE:5B:4D:62:0B:89:55:0C:F2:1A

    Signature Algorithm: sha256WithRSAEncryption
         47:63:2d:00:cc:ab:28:d6:37:60:c6:de:81:71:b3:ac:22:f4:
         78:0d:e2:cb:d1:f7:f4:12:28:7d:5f:55:f1:4a:67:9b:14:79:
         7e:4a:e6:c0:3d:88:d2:d9:35:4c:2d:c8:ba:d0:b4:1d:7a:85:
         62:da:b7:b6:84:06:c1:1f:d9:20:04:9f:c3:d9:53:72:66:c4:
         03:64:2d:8f:39:48:ca:a2:f1:c9:78:9a:b8:e6:79:77:d2:f5:
         c3:6e:1e:f0:4c:a4:6c:01:f2:fd:f9:69:37:af:70:9e:b3:ca:
         e5:ae:20:bd:f1:2b:56:48:bf:7c:66:42:5c:21:bb:fb:96:41:
         5c:38:a6:34:2d:5f:a7:76:3f:30:5e:51:eb:90:9f:bb:29:75:
         84:1d:df:da:cd:02:7d:ab:fb:6b:6d:7d:65:f3:53:29:a9:7f:
         bd:33:d2:51:d3:b1:fa:7f:95:89:a2:02:74:d4:24:ce:8d:68:
         6d:00:e5:d8:46:d7:8f:34:d6:a7:48:c9:a5:f0:af:34:63:1d:
         db:38:67:4a:96:b4:e9:81:ee:24:13:10:ce:b4:12:6f:e5:bd:
         5b:1a:cd:97:d4:49:3c:3f:81:22:13:44:11:71:f9:69:31:2f:
         c7:53:33:97:9a:48:72:ca:d3:0f:39:3d:af:15:43:a7:77:b4:
         ca:48:27:55
-----BEGIN CERTIFICATE-----
MIID3DCCAsSgAwIBAgICAR4wDQYJKoZIhvcNAQELBQAweTELMAkGA1UEBhMCQ04x
EDAOBgNVBAgMB0JFSUpJTkcxEDAOBgNVBAcMB0JFSUpJTkcxCzAJBgNVBAoMAkRF
MQswCQYDVQQLDAJERTENMAsGA1UEAwwEcm9vdDEdMBsGCSqGSIb3DQEJARYOcm9v
dEBhZG1pbi5jb20wHhcNMTUwOTE1MDgyNzI0WhcNMTYwOTE0MDgyNzI0WjBsMQsw
CQYDVQQGEwJDTjEQMA4GA1UECAwHQkVJSklORzELMAkGA1UECgwCREUxCzAJBgNV
BAsMAkRFMRIwEAYDVQQDDAkxMjcuMC4wLjExHTAbBgkqhkiG9w0BCQEWDjEyN0Bz
ZXJ2ZXIuY29tMIIBIjANBgkqhkiG9w0BAQEFAAOCAQ8AMIIBCgKCAQEArF2IOqwB
XXV5lmourzDIpoVRqso7nQoZIKc05wjX5hGugkHSQtEdnxziCdDBZcFykCNU6rvv
8u1jrM+LOaLeny89GX9cGGQQTTnKx4UdyReAl6eju9aYqv13dq9c78AZkGz6Kg5V
i+4l4+Jzz8T9ZsO1JA2k5S7XFuvchQ17Z/DNhek0a8sbZSO5w54SeKPW60k5hAIQ
+cQ9qOACsODabA5gmq42vg+kExPKZseLemlQ+xg9uQsp/U3wqe5QuZeaRJvfi89W
m/RVCQYl754bpYgBAEiI+ph5CJ4JdpuxKg9XKumFCKMpiCVDBMjsSRf+MQiYQ9l0
sEz7bSo9pJDTNQIDAQABo3sweTAJBgNVHRMEAjAAMCwGCWCGSAGG+EIBDQQfFh1P
cGVuU1NMIEdlbmVyYXRlZCBDZXJ0aWZpY2F0ZTAdBgNVHQ4EFgQUAS0xrnWt3XIW
o5oi6vI0ntB2aT0wHwYDVR0jBBgwFoAUoVe9GBBK/waiF65bTWILiVUM8howDQYJ
KoZIhvcNAQELBQADggEBAEdjLQDMqyjWN2DG3oFxs6wi9HgN4svR9/QSKH1fVfFK
Z5sUeX5K5sA9iNLZNUwtyLrQtB16hWLat7aEBsEf2SAEn8PZU3JmxANkLY85SMqi
8cl4mrjmeXfS9cNuHvBMpGwB8v35aTevcJ6zyuWuIL3xK1ZIv3xmQlwhu/uWQVw4
pjQtX6d2PzBeUeuQn7spdYQd39rNAn2r+2ttfWXzUympf70z0lHTsfp/lYmiAnTU
JM6NaG0A5dhG14801qdIyaXwrzRjHds4Z0qWtOmB7iQTEM60Em/lvVsazZfUSTw/
gSITRBFx+WkxL8dTM5eaSHLK0w85Pa8VQ6d3tMpIJ1U=
-----END CERTIFICATE-----
